; ModuleID = '54/885.c'
source_filename = "54/885.c"
target datalayout = "e-m:e-p270:32:32-p271:32:32-p272:64:64-i64:64-f80:128-n8:16:32:64-S128"
target triple = "x86_64-pc-linux-gnu"

@.str = private unnamed_addr constant [5 x i8] c"%d%d\00", align 1
@.str.1 = private unnamed_addr constant [3 x i8] c"%d\00", align 1

; Function Attrs: noinline nounwind uwtable
define dso_local i32 @main() #0 {
  %1 = alloca i32, align 4
  %2 = alloca i32, align 4
  %3 = alloca i32, align 4
  %4 = alloca i32, align 4
  %5 = alloca i32, align 4
  %6 = alloca i32, align 4
  %7 = alloca [100 x i32], align 16
  store i32 0, i32* %1, align 4
  %8 = call i32 (i8*, ...) @__isoc99_scanf(i8* getelementptr inbounds ([5 x i8], [5 x i8]* @.str, i64 0, i64 0), i32* %2, i32* %3)
  store i32 1, i32* %4, align 4
  br label %9

9:                                                ; preds = %43, %0
  %10 = load i32, i32* %4, align 4
  %11 = getelementptr inbounds [100 x i32], [100 x i32]* %7, i64 0, i64 0
  store i32 %10, i32* %11, align 16
  store i32 1, i32* %6, align 4
  store i32 1, i32* %5, align 4
  br label %12

12:                                               ; preds = %35, %9
  %13 = load i32, i32* %5, align 4
  %14 = load i32, i32* %2, align 4
  %15 = icmp slt i32 %13, %14
  br i1 %15, label %16, label %38

16:                                               ; preds = %12
  %17 = load i32, i32* %5, align 4
  %18 = sub nsw i32 %17, 1
  %19 = sext i32 %18 to i64
  %20 = getelementptr inbounds [100 x i32], [100 x i32]* %7, i64 0, i64 %19
  %21 = load i32, i32* %20, align 4
  %22 = load i32, i32* %3, align 4
  %23 = load i32, i32* %2, align 4
  %24 = call i32 @fan(i32 %21, i32 %22, i32 %23)
  %25 = load i32, i32* %5, align 4
  %26 = sext i32 %25 to i64
  %27 = getelementptr inbounds [100 x i32], [100 x i32]* %7, i64 0, i64 %26
  store i32 %24, i32* %27, align 4
  %28 = load i32, i32* %5, align 4
  %29 = sext i32 %28 to i64
  %30 = getelementptr inbounds [100 x i32], [100 x i32]* %7, i64 0, i64 %29
  %31 = load i32, i32* %30, align 4
  %32 = icmp eq i32 %31, -1
  br i1 %32, label %33, label %34

33:                                               ; preds = %16
  store i32 -1, i32* %6, align 4
  br label %38

34:                                               ; preds = %16
  br label %35

35:                                               ; preds = %34
  %36 = load i32, i32* %5, align 4
  %37 = add nsw i32 %36, 1
  store i32 %37, i32* %5, align 4
  br label %12

38:                                               ; preds = %33, %12
  %39 = load i32, i32* %6, align 4
  %40 = icmp eq i32 %39, 1
  br i1 %40, label %41, label %42

41:                                               ; preds = %38
  br label %46

42:                                               ; preds = %38
  br label %43

43:                                               ; preds = %42
  %44 = load i32, i32* %4, align 4
  %45 = add nsw i32 %44, 1
  store i32 %45, i32* %4, align 4
  br label %9

46:                                               ; preds = %41
  %47 = load i32, i32* %2, align 4
  %48 = sub nsw i32 %47, 1
  %49 = sext i32 %48 to i64
  %50 = getelementptr inbounds [100 x i32], [100 x i32]* %7, i64 0, i64 %49
  %51 = load i32, i32* %50, align 4
  %52 = load i32, i32* %2, align 4
  %53 = mul nsw i32 %51, %52
  %54 = load i32, i32* %3, align 4
  %55 = add nsw i32 %53, %54
  %56 = call i32 (i8*, ...) @printf(i8* getelementptr inbounds ([3 x i8], [3 x i8]* @.str.1, i64 0, i64 0), i32 %55)
  %57 = load i32, i32* %1, align 4
  ret i32 %57
}

declare dso_local i32 @__isoc99_scanf(i8*, ...) #1

declare dso_local i32 @printf(i8*, ...) #1

; Function Attrs: noinline nounwind uwtable
define dso_local i32 @fan(i32 %0, i32 %1, i32 %2) #0 {
  %4 = alloca i32, align 4
  %5 = alloca i32, align 4
  %6 = alloca i32, align 4
  %7 = alloca i32, align 4
  store i32 %0, i32* %5, align 4
  store i32 %1, i32* %6, align 4
  store i32 %2, i32* %7, align 4
  %8 = load i32, i32* %5, align 4
  %9 = load i32, i32* %7, align 4
  %10 = mul nsw i32 %8, %9
  %11 = load i32, i32* %6, align 4
  %12 = add nsw i32 %10, %11
  %13 = load i32, i32* %7, align 4
  %14 = sub nsw i32 %13, 1
  %15 = srem i32 %12, %14
  %16 = icmp ne i32 %15, 0
  br i1 %16, label %17, label %18

17:                                               ; preds = %3
  store i32 -1, i32* %4, align 4
  br label %27

18:                                               ; preds = %3
  %19 = load i32, i32* %5, align 4
  %20 = load i32, i32* %7, align 4
  %21 = mul nsw i32 %19, %20
  %22 = load i32, i32* %6, align 4
  %23 = add nsw i32 %21, %22
  %24 = load i32, i32* %7, align 4
  %25 = sub nsw i32 %24, 1
  %26 = sdiv i32 %23, %25
  store i32 %26, i32* %4, align 4
  br label %27

27:                                               ; preds = %18, %17
  %28 = load i32, i32* %4, align 4
  ret i32 %28
}


!llvm.module.flags = !{!0}
!llvm.ident = !{!1}

!0 = !{i32 1, !"wchar_size", i32 4}
!1 = !{!"clang version 10.0.0-4ubuntu1 "}
